; Function Attrs: mustprogress uwtable
define dso_local void @_ZN3tev11ImageButton11showTextBoxEv(ptr nocapture noundef nonnull readonly align 16 dereferenceable(376) %0) local_unnamed_addr #3 align 2 {
  %2 = getelementptr inbounds i8, ptr %0, i64 160
  %3 = load ptr, ptr %2, align 16
  %4 = getelementptr inbounds i8, ptr %3, i64 88
  store i8 1, ptr %4, align 8
  %5 = load ptr, ptr %2, align 16
  tail call void @_ZN7nanogui6Widget13request_focusEv(ptr noundef nonnull align 8 dereferenceable(132) %5)
  %6 = load ptr, ptr %2, align 16
  %7 = getelementptr inbounds i8, ptr %6, i64 364
  store i32 0, ptr %7, align 4
  %8 = getelementptr inbounds i8, ptr %6, i64 312
  %9 = load i8, ptr %8, align 8
  %10 = and i8 %9, 1
  %.not.i.i = icmp eq i8 %10, 0
  %11 = getelementptr inbounds i8, ptr %6, i64 320
  %12 = load i64, ptr %11, align 8
  %13 = lshr i8 %9, 1
  %14 = zext nneg i8 %13 to i64
  %15 = select i1 %.not.i.i, i64 %14, i64 %12
  %16 = trunc i64 %15 to i32
  %17 = getelementptr inbounds i8, ptr %6, i64 360
  store i32 %16, ptr %17, align 8
  ret void
}